target datalayout = "e-m:e-p270:32:32-p271:32:32-p272:64:64-i64:64-i128:128-f80:128-n8:16:32:64-S128"
target triple = "x86_64-pc-linux-gnu"

%struct.evp_md_ctx_st = type { ptr, ptr, ptr, i64, ptr, ptr, ptr, ptr, ptr }
%struct.evp_md_st = type { i32, i32, i32, i64, i32, ptr, ptr, ptr, ptr, ptr, i32, i32, ptr, i32, ptr, ptr, ptr, %struct.CRYPTO_REF_COUNT, ptr, ptr, ptr, ptr, ptr, ptr, ptr, ptr, ptr, ptr, ptr, ptr, ptr, ptr, ptr }
%struct.CRYPTO_REF_COUNT = type { i32 }

@.str = private unnamed_addr constant [31 x i8] c"../openssl/crypto/evp/digest.c\00", align 1
@__func__.EVP_DigestSqueeze = private unnamed_addr constant [18 x i8] c"EVP_DigestSqueeze\00", align 1

; Function Attrs: nounwind uwtable
define i32 @EVP_DigestSqueeze(ptr noundef %0, ptr noundef %1, i64 noundef %2) #0 {
  %4 = alloca i32, align 4
  %5 = alloca ptr, align 8
  %6 = alloca ptr, align 8
  %7 = alloca i64, align 8
  store ptr %0, ptr %5, align 8, !tbaa !3
  store ptr %1, ptr %6, align 8, !tbaa !37
  store i64 %2, ptr %7, align 8, !tbaa !62
  %8 = load ptr, ptr %5, align 8, !tbaa !3
  %9 = getelementptr inbounds nuw %struct.evp_md_ctx_st, ptr %8, i32 0, i32 1
  %10 = load ptr, ptr %9, align 8, !tbaa !16
  %11 = icmp eq ptr %10, null
  br i1 %11, label %12, label %13

12:                                               ; preds = %3
  call void @ERR_new()
  call void @ERR_set_debug(ptr noundef @.str, i32 noundef 558, ptr noundef @__func__.EVP_DigestSqueeze)
  call void (i32, i32, ptr, ...) @ERR_set_error(i32 noundef 6, i32 noundef 218, ptr noundef null)
  store i32 0, ptr %4, align 4
  br label %41

13:                                               ; preds = %3
  %14 = load ptr, ptr %5, align 8, !tbaa !3
  %15 = getelementptr inbounds nuw %struct.evp_md_ctx_st, ptr %14, i32 0, i32 1
  %16 = load ptr, ptr %15, align 8, !tbaa !16
  %17 = getelementptr inbounds nuw %struct.evp_md_st, ptr %16, i32 0, i32 16
  %18 = load ptr, ptr %17, align 8, !tbaa !55
  %19 = icmp eq ptr %18, null
  br i1 %19, label %20, label %21

20:                                               ; preds = %13
  call void @ERR_new()
  call void @ERR_set_debug(ptr noundef @.str, i32 noundef 563, ptr noundef @__func__.EVP_DigestSqueeze)
  call void (i32, i32, ptr, ...) @ERR_set_error(i32 noundef 6, i32 noundef 148, ptr noundef null)
  store i32 0, ptr %4, align 4
  br label %41

21:                                               ; preds = %13
  %22 = load ptr, ptr %5, align 8, !tbaa !3
  %23 = getelementptr inbounds nuw %struct.evp_md_ctx_st, ptr %22, i32 0, i32 1
  %24 = load ptr, ptr %23, align 8, !tbaa !16
  %25 = getelementptr inbounds nuw %struct.evp_md_st, ptr %24, i32 0, i32 22
  %26 = load ptr, ptr %25, align 8, !tbaa !72
  %27 = icmp eq ptr %26, null
  br i1 %27, label %28, label %29

28:                                               ; preds = %21
  call void @ERR_new()
  call void @ERR_set_debug(ptr noundef @.str, i32 noundef 568, ptr noundef @__func__.EVP_DigestSqueeze)
  call void (i32, i32, ptr, ...) @ERR_set_error(i32 noundef 6, i32 noundef 144, ptr noundef null)
  store i32 0, ptr %4, align 4
  br label %41

29:                                               ; preds = %21
  %30 = load ptr, ptr %5, align 8, !tbaa !3
  %31 = getelementptr inbounds nuw %struct.evp_md_ctx_st, ptr %30, i32 0, i32 1
  %32 = load ptr, ptr %31, align 8, !tbaa !16
  %33 = getelementptr inbounds nuw %struct.evp_md_st, ptr %32, i32 0, i32 22
  %34 = load ptr, ptr %33, align 8, !tbaa !72
  %35 = load ptr, ptr %5, align 8, !tbaa !3
  %36 = getelementptr inbounds nuw %struct.evp_md_ctx_st, ptr %35, i32 0, i32 7
  %37 = load ptr, ptr %36, align 8, !tbaa !10
  %38 = load ptr, ptr %6, align 8, !tbaa !37
  %39 = load i64, ptr %7, align 8, !tbaa !62
  %40 = call i32 %34(ptr noundef %37, ptr noundef %38, ptr noundef %7, i64 noundef %39)
  store i32 %40, ptr %4, align 4
  br label %41

41:                                               ; preds = %29, %28, %20, %12
  %42 = load i32, ptr %4, align 4
  ret i32 %42
}