; Function Attrs: nounwind uwtable
define i32 @EVP_DigestSqueeze(ptr noundef readonly captures(none) %0, ptr noundef %1, i64 noundef %2) local_unnamed_addr #0 {
  %4 = alloca i64, align 8
  store i64 %2, ptr %4, align 8, !tbaa !50
  %5 = getelementptr inbounds nuw i8, ptr %0, i64 8
  %6 = load ptr, ptr %5, align 8, !tbaa !12
  %7 = icmp eq ptr %6, null
  br i1 %7, label %8, label %9

8:                                                ; preds = %3
  tail call void @ERR_new() #8
  tail call void @ERR_set_debug(ptr noundef nonnull @.str, i32 noundef 558, ptr noundef nonnull @__func__.EVP_DigestSqueeze) #8
  tail call void (i32, i32, ptr, ...) @ERR_set_error(i32 noundef 6, i32 noundef 218, ptr noundef null) #8
  br label %23

9:                                                ; preds = %3
  %10 = getelementptr inbounds nuw i8, ptr %6, i64 112
  %11 = load ptr, ptr %10, align 8, !tbaa !43
  %12 = icmp eq ptr %11, null
  br i1 %12, label %13, label %14

13:                                               ; preds = %9
  tail call void @ERR_new() #8
  tail call void @ERR_set_debug(ptr noundef nonnull @.str, i32 noundef 563, ptr noundef nonnull @__func__.EVP_DigestSqueeze) #8
  tail call void (i32, i32, ptr, ...) @ERR_set_error(i32 noundef 6, i32 noundef 148, ptr noundef null) #8
  br label %23

14:                                               ; preds = %9
  %15 = getelementptr inbounds nuw i8, ptr %6, i64 160
  %16 = load ptr, ptr %15, align 8, !tbaa !62
  %17 = icmp eq ptr %16, null
  br i1 %17, label %18, label %19

18:                                               ; preds = %14
  tail call void @ERR_new() #8
  tail call void @ERR_set_debug(ptr noundef nonnull @.str, i32 noundef 568, ptr noundef nonnull @__func__.EVP_DigestSqueeze) #8
  tail call void (i32, i32, ptr, ...) @ERR_set_error(i32 noundef 6, i32 noundef 144, ptr noundef null) #8
  br label %23

19:                                               ; preds = %14
  %20 = getelementptr inbounds nuw i8, ptr %0, i64 56
  %21 = load ptr, ptr %20, align 8, !tbaa !3
  %22 = call i32 %16(ptr noundef %21, ptr noundef %1, ptr noundef nonnull %4, i64 noundef %2) #8
  br label %23

23:                                               ; preds = %19, %18, %13, %8
  %.0 = phi i32 [ 0, %8 ], [ 0, %13 ], [ 0, %18 ], [ %22, %19 ]
  ret i32 %.0
}